target datalayout = "e-m:e-p270:32:32-p271:32:32-p272:64:64-i64:64-i128:128-f80:128-n8:16:32:64-S128"
target triple = "x86_64-pc-linux-gnu"

%struct.expert_field = type { i32, i32 }

@hf_nan_bss_id = internal global i32 0, align 4
@hf_nan_mac_address = internal global i32 0, align 4
@hf_nan_non_op_channel_global_op_class = internal global i32 0, align 4
@hf_nan_non_op_channel_channel = internal global i32 0, align 4
@hf_nan_non_op_channel_center_freq = internal global i32 0, align 4
@hf_nan_non_beacon_tbtt_offset = internal global i32 0, align 4
@hf_nan_non_beacon_interval = internal global i32 0, align 4
@ett_non_nan_op_channel = internal global i32 0, align 4
@ett_non_nan_beacon = internal global i32 0, align 4
@ei_nan_elem_len_invalid = internal global %struct.expert_field zeroinitializer, align 4
@.str.727 = private unnamed_addr constant [38 x i8] c"Non-NAN Operating Channel Information\00", align 1
@.str.728 = private unnamed_addr constant [27 x i8] c"Non-NAN Beacon Information\00", align 1

; Function Attrs: null_pointer_is_valid sspstrong uwtable
define internal void @dissect_attr_extended_ibss(ptr noundef %0, ptr noundef %1, i32 noundef %2, i16 noundef zeroext %3, ptr noundef %4) #0 {
  %6 = alloca ptr, align 8
  %7 = alloca ptr, align 8
  %8 = alloca i32, align 4
  %9 = alloca i16, align 2
  %10 = alloca ptr, align 8
  %11 = alloca i32, align 4
  %12 = alloca ptr, align 8
  %13 = alloca ptr, align 8
  %14 = alloca ptr, align 8
  %15 = alloca ptr, align 8
  store ptr %0, ptr %6, align 8
  store ptr %1, ptr %7, align 8
  store i32 %2, ptr %8, align 4
  store i16 %3, ptr %9, align 2
  store ptr %4, ptr %10, align 8
  %16 = load i16, ptr %9, align 2
  %17 = zext i16 %16 to i32
  %18 = icmp ne i32 %17, 19
  br i1 %18, label %19, label %23

19:                                               ; preds = %5
  %20 = load ptr, ptr %10, align 8
  %21 = load ptr, ptr %6, align 8
  %22 = call ptr @expert_add_info(ptr noundef %20, ptr noundef %21, ptr noundef @ei_nan_elem_len_invalid)
  br label %85

23:                                               ; preds = %5
  call void @llvm.lifetime.start.p0(i64 4, ptr %11) #5
  %24 = load i32, ptr %8, align 4
  %25 = add i32 %24, 3
  store i32 %25, ptr %11, align 4
  %26 = load ptr, ptr %6, align 8
  %27 = load i32, ptr @hf_nan_bss_id, align 4
  %28 = load ptr, ptr %7, align 8
  %29 = load i32, ptr %11, align 4
  %30 = call ptr @proto_tree_add_item(ptr noundef %26, i32 noundef %27, ptr noundef %28, i32 noundef %29, i32 noundef 6, i32 noundef -2147483648)
  %31 = load i32, ptr %11, align 4
  %32 = add i32 %31, 6
  store i32 %32, ptr %11, align 4
  %33 = load ptr, ptr %6, align 8
  %34 = load i32, ptr @hf_nan_mac_address, align 4
  %35 = load ptr, ptr %7, align 8
  %36 = load i32, ptr %11, align 4
  %37 = call ptr @proto_tree_add_item(ptr noundef %33, i32 noundef %34, ptr noundef %35, i32 noundef %36, i32 noundef 6, i32 noundef 0)
  %38 = load i32, ptr %11, align 4
  %39 = add i32 %38, 6
  store i32 %39, ptr %11, align 4
  call void @llvm.lifetime.start.p0(i64 8, ptr %12) #5
  store ptr @.str.727, ptr %12, align 8
  call void @llvm.lifetime.start.p0(i64 8, ptr %13) #5
  %40 = load ptr, ptr %6, align 8
  %41 = load ptr, ptr %7, align 8
  %42 = load i32, ptr %11, align 4
  %43 = load i32, ptr @ett_non_nan_op_channel, align 4
  %44 = load ptr, ptr %12, align 8
  %45 = call ptr @proto_tree_add_subtree(ptr noundef %40, ptr noundef %41, i32 noundef %42, i32 noundef 3, i32 noundef %43, ptr noundef null, ptr noundef %44)
  store ptr %45, ptr %13, align 8
  %46 = load ptr, ptr %13, align 8
  %47 = load i32, ptr @hf_nan_non_op_channel_global_op_class, align 4
  %48 = load ptr, ptr %7, align 8
  %49 = load i32, ptr %11, align 4
  %50 = call ptr @proto_tree_add_item(ptr noundef %46, i32 noundef %47, ptr noundef %48, i32 noundef %49, i32 noundef 1, i32 noundef 0)
  %51 = load i32, ptr %11, align 4
  %52 = add i32 %51, 1
  store i32 %52, ptr %11, align 4
  %53 = load ptr, ptr %13, align 8
  %54 = load i32, ptr @hf_nan_non_op_channel_channel, align 4
  %55 = load ptr, ptr %7, align 8
  %56 = load i32, ptr %11, align 4
  %57 = call ptr @proto_tree_add_item(ptr noundef %53, i32 noundef %54, ptr noundef %55, i32 noundef %56, i32 noundef 1, i32 noundef 0)
  %58 = load i32, ptr %11, align 4
  %59 = add i32 %58, 1
  store i32 %59, ptr %11, align 4
  %60 = load ptr, ptr %13, align 8
  %61 = load i32, ptr @hf_nan_non_op_channel_center_freq, align 4
  %62 = load ptr, ptr %7, align 8
  %63 = load i32, ptr %11, align 4
  %64 = call ptr @proto_tree_add_item(ptr noundef %60, i32 noundef %61, ptr noundef %62, i32 noundef %63, i32 noundef 1, i32 noundef 0)
  %65 = load i32, ptr %11, align 4
  %66 = add i32 %65, 1
  store i32 %66, ptr %11, align 4
  call void @llvm.lifetime.start.p0(i64 8, ptr %14) #5
  store ptr @.str.728, ptr %14, align 8
  call void @llvm.lifetime.start.p0(i64 8, ptr %15) #5
  %67 = load ptr, ptr %6, align 8
  %68 = load ptr, ptr %7, align 8
  %69 = load i32, ptr %11, align 4
  %70 = load i32, ptr @ett_non_nan_beacon, align 4
  %71 = load ptr, ptr %14, align 8
  %72 = call ptr @proto_tree_add_subtree(ptr noundef %67, ptr noundef %68, i32 noundef %69, i32 noundef 4, i32 noundef %70, ptr noundef null, ptr noundef %71)
  store ptr %72, ptr %15, align 8
  %73 = load ptr, ptr %15, align 8
  %74 = load i32, ptr @hf_nan_non_beacon_tbtt_offset, align 4
  %75 = load ptr, ptr %7, align 8
  %76 = load i32, ptr %11, align 4
  %77 = call ptr @proto_tree_add_item(ptr noundef %73, i32 noundef %74, ptr noundef %75, i32 noundef %76, i32 noundef 2, i32 noundef -2147483648)
  %78 = load i32, ptr %11, align 4
  %79 = add i32 %78, 2
  store i32 %79, ptr %11, align 4
  %80 = load ptr, ptr %15, align 8
  %81 = load i32, ptr @hf_nan_non_beacon_interval, align 4
  %82 = load ptr, ptr %7, align 8
  %83 = load i32, ptr %11, align 4
  %84 = call ptr @proto_tree_add_item(ptr noundef %80, i32 noundef %81, ptr noundef %82, i32 noundef %83, i32 noundef 2, i32 noundef -2147483648)
  call void @llvm.lifetime.end.p0(i64 8, ptr %15) #5
  call void @llvm.lifetime.end.p0(i64 8, ptr %14) #5
  call void @llvm.lifetime.end.p0(i64 8, ptr %13) #5
  call void @llvm.lifetime.end.p0(i64 8, ptr %12) #5
  call void @llvm.lifetime.end.p0(i64 4, ptr %11) #5
  br label %85

85:                                               ; preds = %23, %19
  ret void
}