; Function Attrs: null_pointer_is_valid sspstrong uwtable
define internal fastcc void @dissect_attr_extended_ibss(ptr noundef %0, ptr noundef %1, i32 noundef %2, i16 noundef zeroext %3, ptr noundef %4) unnamed_addr #0 {
  %.not = icmp eq i16 %3, 19
  br i1 %.not, label %8, label %6

6:                                                ; preds = %5
  %7 = tail call ptr @expert_add_info(ptr noundef %4, ptr noundef %0, ptr noundef nonnull @ei_nan_elem_len_invalid)
  br label %34

8:                                                ; preds = %5
  %9 = add i32 %2, 3
  %10 = load i32, ptr @hf_nan_bss_id, align 4
  %11 = tail call ptr @proto_tree_add_item(ptr noundef %0, i32 noundef %10, ptr noundef %1, i32 noundef %9, i32 noundef 6, i32 noundef -2147483648)
  %12 = add i32 %2, 9
  %13 = load i32, ptr @hf_nan_mac_address, align 4
  %14 = tail call ptr @proto_tree_add_item(ptr noundef %0, i32 noundef %13, ptr noundef %1, i32 noundef %12, i32 noundef 6, i32 noundef 0)
  %15 = add i32 %2, 15
  %16 = load i32, ptr @ett_non_nan_op_channel, align 4
  %17 = tail call ptr @proto_tree_add_subtree(ptr noundef %0, ptr noundef %1, i32 noundef %15, i32 noundef 3, i32 noundef %16, ptr noundef null, ptr noundef nonnull @.str.727)
  %18 = load i32, ptr @hf_nan_non_op_channel_global_op_class, align 4
  %19 = tail call ptr @proto_tree_add_item(ptr noundef %17, i32 noundef %18, ptr noundef %1, i32 noundef %15, i32 noundef 1, i32 noundef 0)
  %20 = add i32 %2, 16
  %21 = load i32, ptr @hf_nan_non_op_channel_channel, align 4
  %22 = tail call ptr @proto_tree_add_item(ptr noundef %17, i32 noundef %21, ptr noundef %1, i32 noundef %20, i32 noundef 1, i32 noundef 0)
  %23 = add i32 %2, 17
  %24 = load i32, ptr @hf_nan_non_op_channel_center_freq, align 4
  %25 = tail call ptr @proto_tree_add_item(ptr noundef %17, i32 noundef %24, ptr noundef %1, i32 noundef %23, i32 noundef 1, i32 noundef 0)
  %26 = add i32 %2, 18
  %27 = load i32, ptr @ett_non_nan_beacon, align 4
  %28 = tail call ptr @proto_tree_add_subtree(ptr noundef %0, ptr noundef %1, i32 noundef %26, i32 noundef 4, i32 noundef %27, ptr noundef null, ptr noundef nonnull @.str.728)
  %29 = load i32, ptr @hf_nan_non_beacon_tbtt_offset, align 4
  %30 = tail call ptr @proto_tree_add_item(ptr noundef %28, i32 noundef %29, ptr noundef %1, i32 noundef %26, i32 noundef 2, i32 noundef -2147483648)
  %31 = add i32 %2, 20
  %32 = load i32, ptr @hf_nan_non_beacon_interval, align 4
  %33 = tail call ptr @proto_tree_add_item(ptr noundef %28, i32 noundef %32, ptr noundef %1, i32 noundef %31, i32 noundef 2, i32 noundef -2147483648)
  br label %34

34:                                               ; preds = %8, %6
  ret void
}